; ModuleID = 'source-C-CXX/32/1610.c'
source_filename = "source-C-CXX/32/1610.c"
target datalayout = "e-m:e-p270:32:32-p271:32:32-p272:64:64-i64:64-f80:128-n8:16:32:64-S128"
target triple = "x86_64-pc-linux-gnu"

@.str = private unnamed_addr constant [3 x i8] c"%d\00", align 1

; Function Attrs: nounwind sspstrong uwtable
define dso_local i32 @main() local_unnamed_addr #0 {
  %1 = alloca i32, align 4
  %2 = alloca [101 x i8], align 16
  %3 = bitcast i32* %1 to i8*
  call void @llvm.lifetime.start.p0i8(i64 4, i8* nonnull %3) #4
  %4 = getelementptr inbounds [101 x i8], [101 x i8]* %2, i64 0, i64 0
  call void @llvm.lifetime.start.p0i8(i64 101, i8* nonnull %4) #4
  %5 = call i32 (i8*, ...) @__isoc99_scanf(i8* getelementptr inbounds ([3 x i8], [3 x i8]* @.str, i64 0, i64 0), i32* nonnull %1)
  %6 = load i32, i32* %1, align 4, !tbaa !5
  %7 = icmp slt i32 %6, 0
  br i1 %7, label %33, label %8

8:                                                ; preds = %0, %28
  %9 = phi i32 [ %30, %28 ], [ 0, %0 ]
  %10 = call i32 (i8*, ...) bitcast (i32 (...)* @gets to i32 (i8*, ...)*)(i8* nonnull %4) #4
  %11 = load i8, i8* %4, align 16, !tbaa !9
  %12 = icmp eq i8 %11, 0
  br i1 %12, label %28, label %13

13:                                               ; preds = %8, %23
  %14 = phi i64 [ %24, %23 ], [ 0, %8 ]
  %15 = phi i8 [ %26, %23 ], [ %11, %8 ]
  %16 = phi i8* [ %25, %23 ], [ %4, %8 ]
  %17 = sext i8 %15 to i32
  switch i32 %17, label %23 [
    i32 65, label %21
    i32 84, label %18
    i32 67, label %19
    i32 71, label %20
  ]

18:                                               ; preds = %13
  br label %21

19:                                               ; preds = %13
  br label %21

20:                                               ; preds = %13
  br label %21

21:                                               ; preds = %13, %20, %19, %18
  %22 = phi i8 [ 65, %18 ], [ 71, %19 ], [ 67, %20 ], [ 84, %13 ]
  store i8 %22, i8* %16, align 1, !tbaa !9
  br label %23

23:                                               ; preds = %21, %13
  %24 = add nuw i64 %14, 1
  %25 = getelementptr inbounds [101 x i8], [101 x i8]* %2, i64 0, i64 %24
  %26 = load i8, i8* %25, align 1, !tbaa !9
  %27 = icmp eq i8 %26, 0
  br i1 %27, label %28, label %13, !llvm.loop !10

28:                                               ; preds = %23, %8
  %29 = call i32 @puts(i8* nonnull %4)
  %30 = add nuw nsw i32 %9, 1
  %31 = load i32, i32* %1, align 4, !tbaa !5
  %32 = icmp slt i32 %9, %31
  br i1 %32, label %8, label %33, !llvm.loop !12

33:                                               ; preds = %28, %0
  call void @llvm.lifetime.end.p0i8(i64 101, i8* nonnull %4) #4
  call void @llvm.lifetime.end.p0i8(i64 4, i8* nonnull %3) #4
  ret i32 0
}

; Function Attrs: argmemonly mustprogress nofree nosync nounwind willreturn
declare void @llvm.lifetime.start.p0i8(i64 immarg, i8* nocapture) #1

; Function Attrs: nofree nounwind
declare noundef i32 @__isoc99_scanf(i8* nocapture noundef readonly, ...) local_unnamed_addr #2

declare i32 @gets(...) local_unnamed_addr #3

; Function Attrs: nofree nounwind
declare noundef i32 @puts(i8* nocapture noundef readonly) local_unnamed_addr #2

; Function Attrs: argmemonly mustprogress nofree nosync nounwind willreturn
declare void @llvm.lifetime.end.p0i8(i64 immarg, i8* nocapture) #1


!llvm.module.flags = !{!0, !1, !2, !3}
!llvm.ident = !{!4}

!0 = !{i32 1, !"wchar_size", i32 4}
!1 = !{i32 7, !"PIC Level", i32 2}
!2 = !{i32 7, !"PIE Level", i32 2}
!3 = !{i32 7, !"uwtable", i32 1}
!4 = !{!"clang version 13.0.0"}
!5 = !{!6, !6, i64 0}
!6 = !{!"int", !7, i64 0}
!7 = !{!"omnipotent char", !8, i64 0}
!8 = !{!"Simple C/C++ TBAA"}
!9 = !{!7, !7, i64 0}
!10 = distinct !{!10, !11}
!11 = !{!"llvm.loop.mustprogress"}
!12 = distinct !{!12, !11}
